target datalayout = "e-m:e-p270:32:32-p271:32:32-p272:64:64-i64:64-i128:128-f80:128-n8:16:32:64-S128"
target triple = "x86_64-pc-linux-gnu"

%"class.llvm::vfs::Status" = type <{ %"class.std::__cxx11::basic_string", %"class.llvm::sys::fs::UniqueID", %"class.std::chrono::time_point", i32, i32, i64, i32, i32, i8, [7 x i8] }>
%"class.std::__cxx11::basic_string" = type { %"struct.std::__cxx11::basic_string<char>::_Alloc_hider", i64, %union.anon }
%"struct.std::__cxx11::basic_string<char>::_Alloc_hider" = type { ptr }
%union.anon = type { i64, [8 x i8] }
%"class.llvm::sys::fs::UniqueID" = type { i64, i64 }
%"class.std::chrono::time_point" = type { %"class.std::chrono::duration" }
%"class.std::chrono::duration" = type { i64 }
%"class.llvm::vfs::detail::InMemoryNode" = type { ptr, i32, %"class.std::__cxx11::basic_string" }
%"class.llvm::vfs::detail::(anonymous namespace)::InMemorySymbolicLink" = type { %"class.llvm::vfs::detail::InMemoryNode", %"class.std::__cxx11::basic_string", %"class.llvm::vfs::Status" }

@_ZTVN4llvm3vfs6detail12InMemoryNodeE = linkonce_odr unnamed_addr constant { [6 x ptr] } { [6 x ptr] [ptr null, ptr null, ptr @_ZN4llvm3vfs6detail12InMemoryNodeD2Ev, ptr @_ZN4llvm3vfs6detail12InMemoryNodeD0Ev, ptr @__cxa_pure_virtual, ptr @__cxa_pure_virtual] }, comdat, align 8

; Function Attrs: mustprogress nounwind uwtable
define linkonce_odr hidden void @_ZN4llvm3vfs6detail12InMemoryNodeD2Ev(ptr noundef nonnull align 8 dereferenceable(48) %0) unnamed_addr #0 comdat align 2 {
  %2 = alloca ptr, align 8
  store ptr %0, ptr %2, align 8
  %3 = load ptr, ptr %2, align 8
  store ptr getelementptr inbounds inrange(-16, 32) ({ [6 x ptr] }, ptr @_ZTVN4llvm3vfs6detail12InMemoryNodeE, i32 0, i32 0, i32 2), ptr %3, align 8
  %4 = getelementptr inbounds nuw %"class.llvm::vfs::detail::InMemoryNode", ptr %3, i32 0, i32 2
  call void @_ZNSt7__cxx1112basic_stringIcSt11char_traitsIcESaIcEED1Ev(ptr noundef nonnull align 8 dereferenceable(32) %4) #5
  ret void
}

; Function Attrs: mustprogress nounwind uwtable
define linkonce_odr hidden void @_ZN4llvm3vfs6StatusD2Ev(ptr noundef nonnull align 8 dereferenceable(81) %0) unnamed_addr #0 comdat align 2 {
  %2 = alloca ptr, align 8
  store ptr %0, ptr %2, align 8
  %3 = load ptr, ptr %2, align 8
  %4 = getelementptr inbounds nuw %"class.llvm::vfs::Status", ptr %3, i32 0, i32 0
  call void @_ZNSt7__cxx1112basic_stringIcSt11char_traitsIcESaIcEED1Ev(ptr noundef nonnull align 8 dereferenceable(32) %4) #5
  ret void
}

; Function Attrs: mustprogress nounwind uwtable
define internal void @_ZN4llvm3vfs6detail12_GLOBAL__N_120InMemorySymbolicLinkD2Ev(ptr noundef nonnull align 8 dereferenceable(168) %0) unnamed_addr #0 align 2 {
  %2 = alloca ptr, align 8
  store ptr %0, ptr %2, align 8
  %3 = load ptr, ptr %2, align 8
  store ptr getelementptr inbounds inrange(-16, 32) ({ [6 x ptr] }, ptr @_ZTVN4llvm3vfs6detail12_GLOBAL__N_120InMemorySymbolicLinkE, i32 0, i32 0, i32 2), ptr %3, align 8
  %4 = getelementptr inbounds nuw %"class.llvm::vfs::detail::(anonymous namespace)::InMemorySymbolicLink", ptr %3, i32 0, i32 2
  call void @_ZN4llvm3vfs6StatusD2Ev(ptr noundef nonnull align 8 dereferenceable(81) %4) #5
  %5 = getelementptr inbounds nuw %"class.llvm::vfs::detail::(anonymous namespace)::InMemorySymbolicLink", ptr %3, i32 0, i32 1
  call void @_ZNSt7__cxx1112basic_stringIcSt11char_traitsIcESaIcEED1Ev(ptr noundef nonnull align 8 dereferenceable(32) %5) #5
  call void @_ZN4llvm3vfs6detail12InMemoryNodeD2Ev(ptr noundef nonnull align 8 dereferenceable(48) %3) #5
  ret void
}

; Function Attrs: mustprogress nounwind uwtable
define internal void @_ZN4llvm3vfs6detail12_GLOBAL__N_120InMemorySymbolicLinkD0Ev(ptr noundef nonnull align 8 dereferenceable(168) %0) unnamed_addr #0 align 2 {
  %2 = alloca ptr, align 8
  store ptr %0, ptr %2, align 8
  %3 = load ptr, ptr %2, align 8
  call void @_ZN4llvm3vfs6detail12_GLOBAL__N_120InMemorySymbolicLinkD2Ev(ptr noundef nonnull align 8 dereferenceable(168) %3) #5
  call void @_ZdlPvm(ptr noundef %3, i64 noundef 168) #16
  ret void
}