; Function Attrs: mustprogress nounwind uwtable
define internal void @_ZN4llvm3vfs6detail12_GLOBAL__N_120InMemorySymbolicLinkD0Ev(ptr noundef nonnull align 8 dereferenceable(168) %0) unnamed_addr #0 align 2 {
  store ptr getelementptr inbounds inrange(-16, 32) (i8, ptr @_ZTVN4llvm3vfs6detail12_GLOBAL__N_120InMemorySymbolicLinkE, i64 16), ptr %0, align 8
  %2 = getelementptr inbounds nuw i8, ptr %0, i64 80
  tail call void @_ZNSt7__cxx1112basic_stringIcSt11char_traitsIcESaIcEED1Ev(ptr noundef nonnull align 8 dereferenceable(32) %2) #27
  %3 = getelementptr inbounds nuw i8, ptr %0, i64 48
  tail call void @_ZNSt7__cxx1112basic_stringIcSt11char_traitsIcESaIcEED1Ev(ptr noundef nonnull align 8 dereferenceable(32) %3) #27
  store ptr getelementptr inbounds inrange(-16, 32) (i8, ptr @_ZTVN4llvm3vfs6detail12InMemoryNodeE, i64 16), ptr %0, align 8
  %4 = getelementptr inbounds nuw i8, ptr %0, i64 16
  tail call void @_ZNSt7__cxx1112basic_stringIcSt11char_traitsIcESaIcEED1Ev(ptr noundef nonnull align 8 dereferenceable(32) %4) #27
  tail call void @_ZdlPvm(ptr noundef nonnull %0, i64 noundef 168) #31
  ret void
}